target datalayout = "e-m:e-p270:32:32-p271:32:32-p272:64:64-i64:64-i128:128-f80:128-n8:16:32:64-S128"
target triple = "x86_64-pc-linux-gnu"

%struct.nghttp2_session = type { %struct.nghttp2_map, %struct.nghttp2_stream, %struct.nghttp2_outbound_queue, %struct.nghttp2_outbound_queue, %struct.nghttp2_outbound_queue, [8 x %struct.anon], %struct.nghttp2_active_outbound_item, %struct.nghttp2_inbound_frame, %struct.nghttp2_hd_deflater, %struct.nghttp2_hd_inflater, %struct.nghttp2_session_callbacks, %struct.nghttp2_mem, ptr, ptr, ptr, ptr, ptr, ptr, i64, i64, i64, i64, i64, i64, i64, i64, i64, i64, i64, i64, i32, i32, i32, i32, i32, i32, i32, i32, i32, i32, i32, i32, i8, %struct.nghttp2_settings_storage, %struct.nghttp2_settings_storage, i32, i32, i32, i8, i8, i8, i8, i8, i8, i8, [32 x i8] }
%struct.nghttp2_map = type { ptr, ptr, i64, i32, i32 }
%struct.nghttp2_stream = type { %struct.nghttp2_pq_entry, %struct.nghttp2_pq, i64, i64, i64, i64, i64, i64, ptr, ptr, ptr, ptr, ptr, ptr, ptr, ptr, i64, i32, i32, i32, i32, i32, i32, i32, i32, i32, i32, i16, i32, i8, i8, i8, i8, i8, i8 }
%struct.nghttp2_pq_entry = type { i64 }
%struct.nghttp2_pq = type { ptr, ptr, i64, i64, ptr }
%struct.nghttp2_outbound_queue = type { ptr, ptr, i64 }
%struct.anon = type { %struct.nghttp2_pq }
%struct.nghttp2_active_outbound_item = type { ptr, %struct.nghttp2_bufs, i32 }
%struct.nghttp2_bufs = type { ptr, ptr, ptr, i64, i64, i64, i64, i64 }
%struct.nghttp2_inbound_frame = type { %union.nghttp2_frame, %union.nghttp2_ext_frame_payload, ptr, %struct.nghttp2_buf, %struct.nghttp2_buf, ptr, i64, i64, i64, i64, i32, [32 x i8] }
%union.nghttp2_frame = type { %struct.nghttp2_headers }
%struct.nghttp2_headers = type { %struct.nghttp2_frame_hd, i64, %struct.nghttp2_priority_spec, ptr, i64, i32 }
%struct.nghttp2_frame_hd = type { i64, i32, i8, i8, i8 }
%struct.nghttp2_priority_spec = type { i32, i32, i8 }
%union.nghttp2_ext_frame_payload = type { %struct.nghttp2_ext_altsvc }
%struct.nghttp2_ext_altsvc = type { ptr, i64, ptr, i64 }
%struct.nghttp2_buf = type { ptr, ptr, ptr, ptr, ptr }
%struct.nghttp2_hd_deflater = type { %struct.nghttp2_hd_context, %struct.nghttp2_hd_map, i64, i64, i8 }
%struct.nghttp2_hd_context = type { %struct.nghttp2_hd_ringbuf, ptr, i64, i64, i32, i8 }
%struct.nghttp2_hd_ringbuf = type { ptr, i64, i64, i64 }
%struct.nghttp2_hd_map = type { [128 x ptr] }
%struct.nghttp2_hd_inflater = type { %struct.nghttp2_hd_context, %struct.nghttp2_hd_huff_decode_context, %struct.nghttp2_buf, %struct.nghttp2_buf, ptr, ptr, ptr, ptr, i64, i64, i64, i64, i64, i32, i32, i8, i8, i8 }
%struct.nghttp2_hd_huff_decode_context = type { i16 }
%struct.nghttp2_session_callbacks = type { ptr, ptr, ptr, ptr, ptr, ptr, ptr, ptr, ptr, ptr, ptr, ptr, ptr, ptr, ptr, ptr, ptr, ptr, ptr, ptr, ptr, ptr, ptr }
%struct.nghttp2_mem = type { ptr, ptr, ptr, ptr, ptr }
%struct.nghttp2_settings_storage = type { i32, i32, i32, i32, i32, i32, i32, i32 }

; Function Attrs: nounwind uwtable
define internal i32 @session_is_outgoing_concurrent_streams_max(ptr noundef %0) #0 {
  %2 = alloca ptr, align 8
  store ptr %0, ptr %2, align 8, !tbaa !8
  %3 = load ptr, ptr %2, align 8, !tbaa !8
  %4 = getelementptr inbounds nuw %struct.nghttp2_session, ptr %3, i32 0, i32 43
  %5 = getelementptr inbounds nuw %struct.nghttp2_settings_storage, ptr %4, i32 0, i32 2
  %6 = load i32, ptr %5, align 4, !tbaa !69
  %7 = zext i32 %6 to i64
  %8 = load ptr, ptr %2, align 8, !tbaa !8
  %9 = getelementptr inbounds nuw %struct.nghttp2_session, ptr %8, i32 0, i32 19
  %10 = load i64, ptr %9, align 8, !tbaa !136
  %11 = icmp ule i64 %7, %10
  %12 = zext i1 %11 to i32
  ret i32 %12
}

; Function Attrs: nounwind uwtable
define internal i32 @session_sched_empty(ptr noundef %0) #0 {
  %2 = alloca i32, align 4
  %3 = alloca ptr, align 8
  %4 = alloca i64, align 8
  %5 = alloca i32, align 4
  store ptr %0, ptr %3, align 8, !tbaa !8
  call void @llvm.lifetime.start.p0(i64 8, ptr %4) #9
  store i64 0, ptr %4, align 8, !tbaa !44
  br label %6

6:                                                ; preds = %19, %1
  %7 = load i64, ptr %4, align 8, !tbaa !44
  %8 = icmp ult i64 %7, 8
  br i1 %8, label %9, label %22

9:                                                ; preds = %6
  %10 = load ptr, ptr %3, align 8, !tbaa !8
  %11 = getelementptr inbounds nuw %struct.nghttp2_session, ptr %10, i32 0, i32 5
  %12 = load i64, ptr %4, align 8, !tbaa !44
  %13 = getelementptr inbounds nuw [8 x %struct.anon], ptr %11, i64 0, i64 %12
  %14 = getelementptr inbounds nuw %struct.anon, ptr %13, i32 0, i32 0
  %15 = call i32 @nghttp2_pq_empty(ptr noundef %14)
  %16 = icmp ne i32 %15, 0
  br i1 %16, label %18, label %17

17:                                               ; preds = %9
  store i32 0, ptr %2, align 4
  store i32 1, ptr %5, align 4
  br label %23

18:                                               ; preds = %9
  br label %19

19:                                               ; preds = %18
  %20 = load i64, ptr %4, align 8, !tbaa !44
  %21 = add i64 %20, 1
  store i64 %21, ptr %4, align 8, !tbaa !44
  br label %6, !llvm.loop !266

22:                                               ; preds = %6
  store i32 1, ptr %2, align 4
  store i32 1, ptr %5, align 4
  br label %23

23:                                               ; preds = %22, %17
  call void @llvm.lifetime.end.p0(i64 8, ptr %4) #9
  %24 = load i32, ptr %2, align 4
  ret i32 %24
}

; Function Attrs: nounwind uwtable
define dso_local i32 @nghttp2_session_want_write(ptr noundef %0) #0 {
  %2 = alloca i32, align 4
  %3 = alloca ptr, align 8
  store ptr %0, ptr %3, align 8, !tbaa !8
  %4 = load ptr, ptr %3, align 8, !tbaa !8
  %5 = getelementptr inbounds nuw %struct.nghttp2_session, ptr %4, i32 0, i32 53
  %6 = load i8, ptr %5, align 1, !tbaa !42
  %7 = zext i8 %6 to i32
  %8 = and i32 %7, 2
  %9 = icmp ne i32 %8, 0
  br i1 %9, label %10, label %11

10:                                               ; preds = %1
  store i32 0, ptr %2, align 4
  br label %60

11:                                               ; preds = %1
  %12 = load ptr, ptr %3, align 8, !tbaa !8
  %13 = getelementptr inbounds nuw %struct.nghttp2_session, ptr %12, i32 0, i32 6
  %14 = getelementptr inbounds nuw %struct.nghttp2_active_outbound_item, ptr %13, i32 0, i32 0
  %15 = load ptr, ptr %14, align 8, !tbaa !109
  %16 = icmp ne ptr %15, null
  br i1 %16, label %57, label %17

17:                                               ; preds = %11
  %18 = load ptr, ptr %3, align 8, !tbaa !8
  %19 = getelementptr inbounds nuw %struct.nghttp2_session, ptr %18, i32 0, i32 2
  %20 = getelementptr inbounds nuw %struct.nghttp2_outbound_queue, ptr %19, i32 0, i32 0
  %21 = load ptr, ptr %20, align 8, !tbaa !164
  %22 = icmp ne ptr %21, null
  br i1 %22, label %57, label %23

23:                                               ; preds = %17
  %24 = load ptr, ptr %3, align 8, !tbaa !8
  %25 = getelementptr inbounds nuw %struct.nghttp2_session, ptr %24, i32 0, i32 3
  %26 = getelementptr inbounds nuw %struct.nghttp2_outbound_queue, ptr %25, i32 0, i32 0
  %27 = load ptr, ptr %26, align 8, !tbaa !165
  %28 = icmp ne ptr %27, null
  br i1 %28, label %57, label %29

29:                                               ; preds = %23
  %30 = load ptr, ptr %3, align 8, !tbaa !8
  %31 = getelementptr inbounds nuw %struct.nghttp2_session, ptr %30, i32 0, i32 1
  %32 = getelementptr inbounds nuw %struct.nghttp2_stream, ptr %31, i32 0, i32 1
  %33 = call i32 @nghttp2_pq_empty(ptr noundef %32)
  %34 = icmp ne i32 %33, 0
  br i1 %34, label %35, label %39

35:                                               ; preds = %29
  %36 = load ptr, ptr %3, align 8, !tbaa !8
  %37 = call i32 @session_sched_empty(ptr noundef %36)
  %38 = icmp ne i32 %37, 0
  br i1 %38, label %44, label %39

39:                                               ; preds = %35, %29
  %40 = load ptr, ptr %3, align 8, !tbaa !8
  %41 = getelementptr inbounds nuw %struct.nghttp2_session, ptr %40, i32 0, i32 37
  %42 = load i32, ptr %41, align 4, !tbaa !58
  %43 = icmp sgt i32 %42, 0
  br i1 %43, label %57, label %44

44:                                               ; preds = %39, %35
  %45 = load ptr, ptr %3, align 8, !tbaa !8
  %46 = getelementptr inbounds nuw %struct.nghttp2_session, ptr %45, i32 0, i32 4
  %47 = getelementptr inbounds nuw %struct.nghttp2_outbound_queue, ptr %46, i32 0, i32 0
  %48 = load ptr, ptr %47, align 8, !tbaa !145
  %49 = icmp ne ptr %48, null
  br i1 %49, label %50, label %55

50:                                               ; preds = %44
  %51 = load ptr, ptr %3, align 8, !tbaa !8
  %52 = call i32 @session_is_outgoing_concurrent_streams_max(ptr noundef %51)
  %53 = icmp ne i32 %52, 0
  %54 = xor i1 %53, true
  br label %55

55:                                               ; preds = %50, %44
  %56 = phi i1 [ false, %44 ], [ %54, %50 ]
  br label %57

57:                                               ; preds = %55, %39, %23, %17, %11
  %58 = phi i1 [ true, %39 ], [ true, %23 ], [ true, %17 ], [ true, %11 ], [ %56, %55 ]
  %59 = zext i1 %58 to i32
  store i32 %59, ptr %2, align 4
  br label %60

60:                                               ; preds = %57, %10
  %61 = load i32, ptr %2, align 4
  ret i32 %61
}