; Function Attrs: nounwind uwtable
define dso_local range(i32 0, 2) i32 @nghttp2_session_want_write(ptr noundef %0) local_unnamed_addr #1 {
  %2 = getelementptr inbounds nuw i8, ptr %0, i64 2845
  %3 = load i8, ptr %2, align 1, !tbaa !4
  %4 = and i8 %3, 2
  %.not = icmp eq i8 %4, 0
  br i1 %.not, label %5, label %35

5:                                                ; preds = %1
  %6 = getelementptr inbounds nuw i8, ptr %0, i64 648
  %7 = load ptr, ptr %6, align 8, !tbaa !110
  %.not9 = icmp eq ptr %7, null
  br i1 %.not9, label %8, label %35

8:                                                ; preds = %5
  %9 = getelementptr inbounds nuw i8, ptr %0, i64 256
  %10 = load ptr, ptr %9, align 8, !tbaa !161
  %.not10 = icmp eq ptr %10, null
  br i1 %.not10, label %11, label %35

11:                                               ; preds = %8
  %12 = getelementptr inbounds nuw i8, ptr %0, i64 280
  %13 = load ptr, ptr %12, align 8, !tbaa !162
  %.not11 = icmp eq ptr %13, null
  br i1 %.not11, label %14, label %35

14:                                               ; preds = %11
  %15 = getelementptr inbounds nuw i8, ptr %0, i64 40
  %16 = tail call i32 @nghttp2_pq_empty(ptr noundef nonnull %15) #20
  %.not12 = icmp eq i32 %16, 0
  br i1 %.not12, label %session_sched_empty.exit.thread, label %17

17:                                               ; preds = %14
  %18 = getelementptr inbounds nuw i8, ptr %0, i64 328
  br label %21

19:                                               ; preds = %21
  %20 = add nuw nsw i64 %.05.i, 1
  %exitcond.not.i = icmp eq i64 %20, 8
  br i1 %exitcond.not.i, label %session_sched_empty.exit, label %21, !llvm.loop !163

21:                                               ; preds = %19, %17
  %.05.i = phi i64 [ 0, %17 ], [ %20, %19 ]
  %22 = getelementptr inbounds nuw [8 x %struct.anon], ptr %18, i64 0, i64 %.05.i
  %23 = tail call i32 @nghttp2_pq_empty(ptr noundef nonnull %22) #20
  %.not.i = icmp eq i32 %23, 0
  br i1 %.not.i, label %session_sched_empty.exit.thread, label %19

session_sched_empty.exit.thread:                  ; preds = %21, %14
  %24 = getelementptr inbounds nuw i8, ptr %0, i64 2740
  %25 = load i32, ptr %24, align 4, !tbaa !48
  %26 = icmp sgt i32 %25, 0
  br i1 %26, label %35, label %session_sched_empty.exit

session_sched_empty.exit:                         ; preds = %19, %session_sched_empty.exit.thread
  %27 = getelementptr inbounds nuw i8, ptr %0, i64 304
  %28 = load ptr, ptr %27, align 8, !tbaa !148
  %.not14 = icmp eq ptr %28, null
  br i1 %.not14, label %35, label %29

29:                                               ; preds = %session_sched_empty.exit
  %30 = getelementptr i8, ptr %0, i64 2624
  %.val = load i64, ptr %30, align 8, !tbaa !136
  %31 = getelementptr i8, ptr %0, i64 2772
  %.val16 = load i32, ptr %31, align 4, !tbaa !66
  %32 = zext i32 %.val16 to i64
  %33 = icmp ult i64 %.val, %32
  %34 = zext i1 %33 to i32
  br label %35

35:                                               ; preds = %5, %8, %11, %session_sched_empty.exit.thread, %29, %session_sched_empty.exit, %1
  %.0 = phi i32 [ 0, %1 ], [ 1, %session_sched_empty.exit.thread ], [ 1, %11 ], [ 1, %8 ], [ 1, %5 ], [ 0, %session_sched_empty.exit ], [ %34, %29 ]
  ret i32 %.0
}